; Function Attrs: mustprogress nofree norecurse nosync nounwind willreturn memory(read, inaccessiblemem: none) uwtable
define hidden noundef ptr @_ZN6google8protobuf8internal18GenericTypeHandlerINS0_7MessageEE14GetOwningArenaEPS3_(ptr noundef readonly captures(none) %0) local_unnamed_addr #9 align 2 {
  %2 = getelementptr inbounds nuw i8, ptr %0, i64 8
  %3 = load i64, ptr %2, align 8, !tbaa !47
  %4 = and i64 %3, 2
  %.not.i = icmp eq i64 %4, 0
  br i1 %.not.i, label %5, label %_ZNK6google8protobuf11MessageLite14GetOwningArenaEv.exit

5:                                                ; preds = %1
  %6 = and i64 %3, 1
  %.not1.i = icmp eq i64 %6, 0
  br i1 %.not1.i, label %11, label %7, !prof !49

7:                                                ; preds = %5
  %8 = and i64 %3, -4
  %9 = inttoptr i64 %8 to ptr
  %10 = load ptr, ptr %9, align 8, !tbaa !99
  br label %_ZNK6google8protobuf11MessageLite14GetOwningArenaEv.exit

11:                                               ; preds = %5
  %12 = inttoptr i64 %3 to ptr
  br label %_ZNK6google8protobuf11MessageLite14GetOwningArenaEv.exit

_ZNK6google8protobuf11MessageLite14GetOwningArenaEv.exit: ; preds = %1, %7, %11
  %13 = phi ptr [ null, %1 ], [ %10, %7 ], [ %12, %11 ]
  ret ptr %13
}